target datalayout = "e-m:e-p270:32:32-p271:32:32-p272:64:64-i64:64-i128:128-f80:128-n8:16:32:64-S128"
target triple = "x86_64-pc-linux-gnu"

@.str = private unnamed_addr constant [119 x i8] c"generated/home/dtcxzyw/WorkSpace/Projects/compilers/llvm-opt-benchmark/bench/lief/bench_build/mbed_src/library/pkcs7.c\00", align 1

; Function Attrs: inlinehint nounwind uwtable
define internal i32 @mbedtls_error_add(i32 noundef %0, i32 noundef %1, ptr noundef %2, i32 noundef %3) #6 {
  %5 = alloca i32, align 4
  %6 = alloca i32, align 4
  %7 = alloca ptr, align 8
  %8 = alloca i32, align 4
  store i32 %0, ptr %5, align 4, !tbaa !12
  store i32 %1, ptr %6, align 4, !tbaa !12
  store ptr %2, ptr %7, align 8, !tbaa !8
  store i32 %3, ptr %8, align 4, !tbaa !12
  %9 = load i32, ptr %5, align 4, !tbaa !12
  %10 = load i32, ptr %6, align 4, !tbaa !12
  %11 = add nsw i32 %9, %10
  ret i32 %11
}

; Function Attrs: nounwind uwtable
define internal i32 @pkcs7_get_next_content_len(ptr noundef %0, ptr noundef %1, ptr noundef %2) #0 {
  %4 = alloca ptr, align 8
  %5 = alloca ptr, align 8
  %6 = alloca ptr, align 8
  %7 = alloca i32, align 4
  store ptr %0, ptr %4, align 8, !tbaa !35
  store ptr %1, ptr %5, align 8, !tbaa !8
  store ptr %2, ptr %6, align 8, !tbaa !38
  call void @llvm.lifetime.start.p0(i64 4, ptr %7) #9
  store i32 -110, ptr %7, align 4, !tbaa !12
  %8 = load ptr, ptr %4, align 8, !tbaa !35
  %9 = load ptr, ptr %5, align 8, !tbaa !8
  %10 = load ptr, ptr %6, align 8, !tbaa !38
  %11 = call i32 @mbedtls_asn1_get_tag(ptr noundef %8, ptr noundef %9, ptr noundef %10, i32 noundef 160)
  store i32 %11, ptr %7, align 4, !tbaa !12
  %12 = load i32, ptr %7, align 4, !tbaa !12
  %13 = icmp ne i32 %12, 0
  br i1 %13, label %14, label %17

14:                                               ; preds = %3
  %15 = load i32, ptr %7, align 4, !tbaa !12
  %16 = call i32 @mbedtls_error_add(i32 noundef -21632, i32 noundef %15, ptr noundef @.str, i32 noundef 48)
  store i32 %16, ptr %7, align 4, !tbaa !12
  br label %30

17:                                               ; preds = %3
  %18 = load ptr, ptr %5, align 8, !tbaa !8
  %19 = load ptr, ptr %4, align 8, !tbaa !35
  %20 = load ptr, ptr %19, align 8, !tbaa !8
  %21 = ptrtoint ptr %18 to i64
  %22 = ptrtoint ptr %20 to i64
  %23 = sub i64 %21, %22
  %24 = load ptr, ptr %6, align 8, !tbaa !38
  %25 = load i64, ptr %24, align 8, !tbaa !10
  %26 = icmp ne i64 %23, %25
  br i1 %26, label %27, label %29

27:                                               ; preds = %17
  %28 = call i32 @mbedtls_error_add(i32 noundef -21632, i32 noundef -102, ptr noundef @.str, i32 noundef 51)
  store i32 %28, ptr %7, align 4, !tbaa !12
  br label %29

29:                                               ; preds = %27, %17
  br label %30

30:                                               ; preds = %29, %14
  %31 = load i32, ptr %7, align 4, !tbaa !12
  call void @llvm.lifetime.end.p0(i64 4, ptr %7) #9
  ret i32 %31
}