; Function Attrs: nounwind uwtable
define internal fastcc range(i32 -2147483648, 2147462016) i32 @pkcs7_get_next_content_len(ptr noundef nonnull %0, ptr noundef %1, ptr noundef nonnull %2) unnamed_addr #2 {
  %4 = tail call i32 @mbedtls_asn1_get_tag(ptr noundef nonnull %0, ptr noundef %1, ptr noundef nonnull %2, i32 noundef 160) #9
  %.not = icmp eq i32 %4, 0
  br i1 %.not, label %7, label %5

5:                                                ; preds = %3
  %6 = add nsw i32 %4, -21632
  br label %13

7:                                                ; preds = %3
  %8 = load ptr, ptr %0, align 8, !tbaa !7
  %9 = ptrtoint ptr %1 to i64
  %10 = ptrtoint ptr %8 to i64
  %11 = sub i64 %9, %10
  %12 = load i64, ptr %2, align 8, !tbaa !3
  %.not9 = icmp eq i64 %11, %12
  %spec.select = select i1 %.not9, i32 0, i32 -21734
  br label %13

13:                                               ; preds = %7, %5
  %.0 = phi i32 [ %6, %5 ], [ %spec.select, %7 ]
  ret i32 %.0
}